(dp0
S'_after_c'
p1
I52
sS'_not+to+mention_c'
p2
I54
sS'_versus_c'
p3
I45
sS'_and_c'
p4
I13
sS'_and+also_c'
p5
I40
sS'_formerly_c'
p6
I58
sS'subord'
p7
I17
sS'_much+less_c'
p8
I57
sS'_and+yet_c'
p9
I51
sS'_and+so_c'
p10
I35
sS'BV'
p11
I5
sS'_and+not_c'
p12
I43
sS'manner'
p13
I39
sS'comp_too'
p14
I32
sS'measure'
p15
I3
sS'conj'
p16
I18
sS'_except_c'
p17
I41
sS'loc'
p18
I10
sS'comp_not+so'
p19
I56
sS'_instead+of_c'
p20
I50
sS'_if+not_c'
p21
I53
sS'_nor_c'
p22
I12
sS'neg'
p23
I20
sS'_not_c'
p24
I37
sS'than'
p25
I15
sS'discourse'
p26
I31
sS'_minus_c'
p27
I49
sS'_and+thus_c'
p28
I48
sS'mwe'
p29
I8
sS'comp_enough'
p30
I29
sS'plus'
p31
I25
sS'_though_c'
p32
I55
sS'parenthetical'
p33
I33
sS'_and+then_c'
p34
I42
sS'comp'
p35
I19
sS'_but+also_c'
p36
I36
sS'_except+that_c'
p37
I59
sS'part'
p38
I16
sS'_rather+than_c'
p39
I27
sS'_even_c'
p40
I46
sS'compound'
p41
I1
sS'poss'
p42
I11
sS'_'
p43
I0
sS'comp_less'
p44
I24
sS'temp'
p45
I30
sS'ARG1'
p46
I2
sS'ARG2'
p47
I4
sS'ARG3'
p48
I7
sS'ARG4'
p49
I26
sS'_plus_c'
p50
I47
sS'_but+not_c'
p51
I34
sS'times'
p52
I14
sS'_as+well+as_c'
p53
I28
sS'_yet_c'
p54
I44
sS'_but_c'
p55
I22
sS'of'
p56
I6
sS'_then_c'
p57
I38
sS'comp_so'
p58
I23
sS'appos'
p59
I9
sS'_or_c'
p60
I21
s.