(dp1
S'a:e-i-h'
p2
I151
sS'a:e-i-i'
p3
I96
sS'a:e-p-i'
p4
I474
sS'v_around:e-i'
p5
I271
sS'v_seem-to:e-u-h-i'
p6
I314
sS'a_true:e-i'
p7
I394
sS'a:e-p-u'
p8
I211
sS'v_amt-of:e-i-p-i'
p9
I492
sS'v_in-on:e-i-i'
p10
I514
sS'p:e-x-i'
p11
I20
sS'mwe'
p12
I27
sS'x:x-i'
p13
I180
sS'v_at:e-i-p'
p14
I137
sS'v_of:e-i-p'
p15
I221
sS'a_of-about:e-e'
p16
I333
sS'v_of:e-i-h'
p17
I284
sS'v_of:e-i-i'
p18
I161
sS'_rather+than_c'
p19
I152
sS'a_of-for:e-e'
p20
I519
sS'v_at:e-i-h'
p21
I198
sS'v_at:e-i-i'
p22
I217
sS'v_in:e-i-p'
p23
I309
sS'v_of:e-i-p-i'
p24
I135
sS'v_of:e-i-p-h'
p25
I263
sS'v_in:e-i-u'
p26
I443
sS'v_about:e-i-i'
p27
I205
sS'v_about:e-i-h'
p28
I227
sS'v_itcleft:e-i-h'
p29
I245
sS'v_in:e-i-i'
p30
I83
sS'v_at:e-i-p-i'
p31
I142
sS'v_down:e-i-i'
p32
I131
sS'v_about:e-i-p'
p33
I455
sS'loc_nonsp:e-u-i'
p34
I384
sS'v_cause-to:e-i-p-i'
p35
I473
sS'little-few_a:e-i'
p36
I195
sS'v_x-off:e-i-i'
p37
I386
sS'v_mental:e-i-h'
p38
I218
sS'little-few_a:e-p'
p39
I74
sS'_and+not_c'
p40
I323
sS'neg'
p41
I76
sS'v_back:e-i'
p42
I363
sS'v_through:e-i'
p43
I275
sS'v_cause:e-i'
p44
I366
sS'v_sound:e-i'
p45
I360
sS'a_of-about:e-p-i'
p46
I349
sS'n_in:x'
p47
I424
sS'n_of-on:x-h'
p48
I466
sS'n_of-on:x-i'
p49
I192
sS'v_of:e-i-h-i'
p50
I201
sS'_except+that_c'
p51
I528
sS'v_out:e-i-u-h'
p52
I481
sS'v_transfer:e-i-i-i'
p53
I286
sS'v_as:e-i-p-i'
p54
I78
sS'v_out:e-i-i-i'
p55
I496
sS'a_of-about:e-i-h'
p56
I382
sS'v_from:e-i-i-h'
p57
I155
sS'unspec_manner:e-u-x'
p58
I257
sS'x:i-c'
p59
I358
sS'v_for-as:e-i-p-i'
p60
I413
sS'parenthetical'
p61
I208
sS'v:e-h-u'
p62
I341
sS'v_on:e-h-i'
p63
I470
sS'n_from:x-i'
p64
I277
sS'a:e-h-i'
p65
I372
sS'v_from-to:e-i-i-h'
p66
I499
sS'excl:i-c'
p67
I184
sS'v_out-to:e-i-u-h'
p68
I280
sS'n_meas:x'
p69
I305
sS'v_toward:e-i-i'
p70
I522
sS'v_in:e-i-p-i'
p71
I266
sS'place_n:x'
p72
I103
sS'v_with-for:e-i-i-h'
p73
I529
sS'v_about:e-i-h-i'
p74
I260
sS'v_cause-on:e-i-p'
p75
I178
sS'v:e-i-p-u'
p76
I23
sS'ellipsis:e-u'
p77
I228
sS'part_of:x-i'
p78
I65
sS'a_at:e-p-i'
p79
I163
sS'n_of-for:x-i'
p80
I229
sS'a_disc:e-h'
p81
I304
sS'v:e-i-p-h'
p82
I82
sS'v_out:e-i-h'
p83
I222
sS'v_out:e-i-i'
p84
I116
sS'v_forward-to:e-i-i'
p85
I117
sS'comp_less'
p86
I129
sS'v_mental:e-i'
p87
I237
sS'n_abb:x-i'
p88
I507
sS'much-many_a:i-p'
p89
I475
sS'v_out:e-i-u'
p90
I340
sS'a_of-for:e-p-i'
p91
I330
sS'v_off:e-i-i'
p92
I177
sS'v_prd:e-i-i-h'
p93
I207
sS'v:e-i-h-i'
p94
I90
sS'v_out+of:e-i-p-i'
p95
I488
sS'v_for:e-i-p-i-i'
p96
I140
sS'named:x-c'
p97
I0
sS'v_for:e-i-i'
p98
I133
sS'v_from:e-i'
p99
I364
sS'_or_c'
p100
I104
sS'_much+less_c'
p101
I484
sS'v_for:e-i-h'
p102
I197
sS'n_of-n:x'
p103
I199
sS'v_so:e-i'
p104
I234
sS'v_up-to:e-i-i'
p105
I319
sS'v_upon:e-i-i'
p106
I422
sS'times'
p107
I53
sS'v_for-i:e-i-p-i'
p108
I530
sS'comp_not+so'
p109
I480
sS'p:e-u-i'
p110
I13
sS'p:e-u-h'
p111
I435
sS'_if+not_c'
p112
I414
sS'v_cause:e-i-i-i'
p113
I472
sS'v_cause:e-i-i-h'
p114
I377
sS'v_like:e-i'
p115
I426
sS'p:e-u-x'
p116
I52
sS'v_regarding:e-i'
p117
I497
sS'v_id:e-u-h'
p118
I385
sS'v:e-i-u-h'
p119
I348
sS'v_id:e-i-h'
p120
I215
sS'v_id:e-i-i'
p121
I174
sS'v_to-about:e-p'
p122
I209
sS'year_range:x-c'
p123
I48
sS'q:x-h-h'
p124
I64
sS'v_it:e-i-h'
p125
I337
sS'v_as:e-i-i-i'
p126
I356
sS'v_as:e-i-i-h'
p127
I253
sS'v_of:e-i-i-h'
p128
I162
sS'v_of:e-i-i-i'
p129
I501
sS'v_id:e-i-u'
p130
I290
sS'mofy:x-c'
p131
I15
sS'a_to:e-p-i'
p132
I203
sS'v_over:e-i'
p133
I251
sS'v:e'
p134
I486
sS'v_there:e-i'
p135
I41
sS'_as+well+as_c'
p136
I158
sS'comp_so'
p137
I120
sS'n_pound:x'
p138
I510
sS'v_apart:e-i-i'
p139
I392
sS'n_of-to:x'
p140
I191
sS'v_buy:e-i'
p141
I354
sS'comp:e-u-h'
p142
I193
sS'_not+to+mention_c'
p143
I420
sS'x:x'
p144
I40
sS'v_id:e-p-i'
p145
I18
sS'_plus_c'
p146
I352
sS'v_cause-to:e-i-p'
p147
I459
sS'x:i'
p148
I171
sS'v_with-for:e-i-h'
p149
I244
sS'v_around-to:e-i-i'
p150
I498
sS'n_cur:x'
p151
I212
sS'n_of:x-u'
p152
I115
sS'v_out:e-i'
p153
I181
sS'a_in:e-i'
p154
I371
sS'v_coll:e-i-p'
p155
I370
sS'v_up-2:e-i'
p156
I504
sS'a_in:e-p'
p157
I299
sS'n_of:x-i'
p158
I10
sS'n_of:x-h'
p159
I95
sS'v_qmodal:e-h'
p160
I89
sS'v_down-to:e-i-i'
p161
I517
sS'v_out-to:e-i-i'
p162
I398
sS'v_into:e-i'
p163
I186
sS'v_down:e-i-u'
p164
I418
sS'a_as:e-i'
p165
I121
sS'v_seem-to:e-h-i'
p166
I445
sS'compound'
p167
I2
sS'polite:i-u-c'
p168
I389
sS'v_suffice:e-i'
p169
I494
sS'fraction:i-i-c'
p170
I138
sS'v_out-aim:e-i-h'
p171
I409
sS'a_in:e-p-i'
p172
I189
sS'v_against:e-i-i'
p173
I444
sS'v_adv:e-i-p'
p174
I346
sS'a_of:e-p-i'
p175
I43
sS'v_against:e-i-p'
p176
I460
sS'v:e-i-i-i'
p177
I99
sS'v:e-i-i-h'
p178
I22
sS'a_to:e-h-i'
p179
I447
sS'n_item:x'
p180
I91
sS'part_of:i-i'
p181
I124
sS'measure'
p182
I7
sS'p:e-h-h'
p183
I355
sS'v_with-for:e-i-i'
p184
I476
sS'n_for:x'
p185
I316
sS'v_cause-into:e-i-p'
p186
I502
sS'a_from:e-e'
p187
I130
sS'a:i-h'
p188
I327
sS'a:i-i'
p189
I84
sS'v_up-with:e-i-i'
p190
I493
sS'c:i'
p191
I343
sS'v_about:e-i-p-i'
p192
I233
sS'n_about:x-h'
p193
I86
sS'n_about:x-i'
p194
I235
sS'p:e-i-u'
p195
I28
sS'v_loc:e-i-u'
p196
I421
sS'v_up-cause:e-i-i'
p197
I500
sS'v_about:e-i'
p198
I297
sS'v_away:e-i'
p199
I411
sS'appos'
p200
I30
sS'v_from:e-i-p'
p201
I108
sS'a_with:e-e'
p202
I433
sS'a_to-for:e-p-i'
p203
I336
sS'v_from:e-i-i'
p204
I143
sS'v_from:e-i-h'
p205
I339
sS'v_about:e-p'
p206
I145
sS'a_at-for-of:e-p-i'
p207
I188
sS'named_n:x-c'
p208
I69
sS'p:e-p'
p209
I449
sS'p:e-x'
p210
I525
sS'ord:i-i-c'
p211
I119
sS'p:e-e'
p212
I134
sS'p:e-i'
p213
I100
sS'v_without:e-i-i'
p214
I482
sS'n_money:x'
p215
I317
sS'v_with:e-i-h-i'
p216
I68
sS'interval_p_end:i-i-i'
p217
I278
sS'v_even:e-i'
p218
I429
sS'v_up:e-i-u-h'
p219
I270
sS'v_home:e-i-i'
p220
I434
sS'n_do-be:i'
p221
I477
sS'v_into:e-i-p'
p222
I240
sS'v_state:e-i-i-h'
p223
I326
sS'dofw:x-c'
p224
I98
sS'v_by:e-i-i'
p225
I516
sS'v_by:e-i'
p226
I461
sS'v_by:e-i-p'
p227
I273
sS'part'
p228
I58
sS'n_for:x-h'
p229
I265
sS'v_into:e-i-i'
p230
I252
sS'v_prd:e-h'
p231
I37
sS'v_on:e-i-i-i'
p232
I442
sS'than'
p233
I57
sS'v_by:e-i-h-i'
p234
I403
sS'v_from-to:e-i-p-i-i'
p235
I248
sS'a_at:e-i-h'
p236
I391
sS'_but+not_c'
p237
I231
sS'v_against:e-i-p-i'
p238
I511
sS'a_thus:e-h'
p239
I232
sS'a_with-about-of:e-p-i'
p240
I320
sS'p:e-u-e'
p241
I518
sS'v_of-i:e-i-i'
p242
I92
sS'v_for:e-i-i-i'
p243
I153
sS'manner'
p244
I258
sS'a_to:e-i-i'
p245
I241
sS'a_to:e-i-h'
p246
I301
sS'a_with:e-p-i'
p247
I157
sS'a_for:e-i-h'
p248
I373
sS'n:x'
p249
I5
sS'v_up-for:e-i-u'
p250
I344
sS'a_of-to:e-p-i'
p251
I357
sS'_minus_c'
p252
I390
sS'_and+thus_c'
p253
I353
sS'n_at:x-i'
p254
I225
sS'n_with:x'
p255
I291
sS'a:e-p'
p256
I6
sS'v_seem+to:e-u-h-i'
p257
I456
sS'a:e-u'
p258
I14
sS'_then_c'
p259
I254
sS'a_on:e-p-i'
p260
I200
sS'v_through:e-i-i'
p261
I206
sS'n_to:x'
p262
I128
sS'a:e-e'
p263
I21
sS'v_open:e-i-i'
p264
I427
sS'a:e-h'
p265
I67
sS'a:e-i'
p266
I63
sS'v_at:e-i'
p267
I282
sS'v_yet:i-h'
p268
I430
sS'v_cause:e-i-p'
p269
I85
sS'v_for:e-i-p-i'
p270
I247
sS'a_with-about-of:e-i-h'
p271
I453
sS'v_cause:e-i-h'
p272
I167
sS'a_at-for-of:e-h-i'
p273
I417
sS'v_for:e-i-p-u'
p274
I190
sS'v_into:e-i-p-i'
p275
I239
sS'v_to:e-i-h-i'
p276
I29
sS'v_behind:e-i-i'
p277
I432
sS'n_on:x-i'
p278
I303
sS'n_on:x-h'
p279
I381
sS'a_about:e-p-i'
p280
I160
sS'x:e-h-h'
p281
I32
sS'v_with:e-i-p-h'
p282
I490
sS'v_with:e-i-p-i'
p283
I49
sS'v_state:e-i-h'
p284
I125
sS'v_out-2:e-i-i'
p285
I520
sS'n_of-n:x-i'
p286
I51
sS'_and+yet_c'
p287
I404
sS'n_pair:x'
p288
I375
sS'v_to:e-i-h'
p289
I66
sS'v_to:e-i-i'
p290
I154
sS'v_to:e-i-p'
p291
I60
sS'loc_nonsp:i-e-u'
p292
I491
sS'a_with-at:e-p'
p293
I437
sS'v_together:e-i'
p294
I428
sS'v_on:e-i-i-h'
p295
I322
sS'n_for:x-i'
p296
I132
sS'_and+so_c'
p297
I236
sS'v_from-to:e-i'
p298
I487
sS'v_on-upon:e-i-i'
p299
I210
sS'q_dem:i-h-h'
p300
I87
sS'n_at:x-h'
p301
I361
sS'recip_pro:x'
p302
I220
sS'a_of:e-e'
p303
I113
sS'a_for:e-h-i'
p304
I126
sS'season:x-c'
p305
I118
sS'_nor_c'
p306
I42
sS'comp:e-u-u'
p307
I71
sS'neg:e-h'
p308
I75
sS'a_of:e-i'
p309
I308
sS'a_of:e-h'
p310
I292
sS'v_for-as:e-i-p'
p311
I287
sS'a_of:e-p'
p312
I168
sS'q:i-h-h'
p313
I9
sS'numbered_hour:i-u-u-c'
p314
I109
sS'_and+then_c'
p315
I310
sS'v_down:e-i'
p316
I325
sS'a_at-by-in:e-p-i'
p317
I388
sS'v_to-about:e-i-h-i'
p318
I256
sS'comp'
p319
I72
sS'v_from-of:e-i-p-i'
p320
I523
sS'v_across:e-i-i'
p321
I505
sS'v_across:e-i-u'
p322
I467
sS'v_dir:e-i'
p323
I338
sS'a_about:e-i-h'
p324
I448
sS'v_on:e-i-p-i'
p325
I81
sS'n_abb:x'
p326
I452
sS'_except_c'
p327
I296
sS'_but+also_c'
p328
I242
sS'v_away-with:e-i-i'
p329
I489
sS'n_into:x-i'
p330
I436
sS'v_out:e-h'
p331
I350
sS'a_with-about-of:e-e'
p332
I261
sS'v_name:e-i-i-i'
p333
I148
sS'v_up:e-i-u'
p334
I295
sS'v_off-cause:e-i-i'
p335
I521
sS'v_to:e-i-i-h'
p336
I183
sS'v_to:e-i-i-i'
p337
I169
sS'pron:x'
p338
I26
sS'n_i:x'
p339
I93
sS'v_ahead:e-i'
p340
I226
sS'v_up:e-i-i'
p341
I123
sS'a_at:e-e'
p342
I483
sS'comp_enough'
p343
I164
sS'v_do:e-x-h'
p344
I479
sS'n_on-about:x-i'
p345
I46
sS'n_on-about:x-h'
p346
I509
sS'temp_loc_x:i-e-u'
p347
I412
sS'v_along:e-i'
p348
I462
sS'n_of-to:x-i'
p349
I33
sS'v_be:e-p-x'
p350
I478
sS'v_ing:e-i-h'
p351
I380
sS'a_expl-for:e-h-i'
p352
I440
sS'n_of-to:x-i-i'
p353
I274
sS'v_to:e-i-p-i'
p354
I25
sS'v_to:e-i-p-h'
p355
I331
sS'v_to:e-h-i'
p356
I294
sS'_after_c'
p357
I406
sS'v:e-i-i'
p358
I44
sS'_and_c'
p359
I47
sS'v:e-p'
p360
I176
sS'x:e-u-i'
p361
I345
sS'v:e-u'
p362
I307
sS'v_around:e-i-i'
p363
I170
sS'x:e-u-u'
p364
I202
sS'v:e-i'
p365
I55
sS'v:e-h'
p366
I94
sS'a_at-by-with:e-p-i'
p367
I400
sS'v_in:e-i'
p368
I293
sS'conj'
p369
I62
sS'yofc:x-c'
p370
I39
sS'_instead+of_c'
p371
I395
sS'n_num:x'
p372
I223
sS'a_for:e-p-i'
p373
I45
sS'discourse'
p374
I185
sS'temp_loc_x:e-e-i'
p375
I393
sS'interval:x'
p376
I276
sS'n:x-h'
p377
I107
sS'n:x-i'
p378
I285
sS'v_as:e-i-h-i'
p379
I269
sS'v_cause:e-i-p-h'
p380
I166
sS'n_in:x-i'
p381
I97
sS'n_in:x-h'
p382
I410
sS'much-many_a:e-i'
p383
I56
sS'a_to:e-i'
p384
I172
sS'a_to:e-h'
p385
I324
sS'a_to:e-e'
p386
I54
sS'much-many_a:e-p'
p387
I146
sS'a_to:e-p'
p388
I334
sS'v_with:e-i-i'
p389
I289
sS'a_for-as:e-p-i'
p390
I396
sS'BV'
p391
I12
sS'n_with:x-i'
p392
I321
sS'v_i:e-i-p-i'
p393
I513
sS'_versus_c'
p394
I335
sS'v_with:e-i-p'
p395
I61
sS'v_aback:e-i-i'
p396
I468
sS'v_up-for:e-i-i'
p397
I431
sS'v_to:e-i-u-i'
p398
I515
sS'v_seem-about:e-u-h-i'
p399
I283
sS'n_at-with:x-i'
p400
I415
sS'p:i-i-i'
p401
I423
sS'v_on:e-i-i-i-h'
p402
I407
sS'_even_c'
p403
I342
sS'v_modal:e-h'
p404
I70
sS'card:i-i-c'
p405
I4
sS'a_with:e-i-h'
p406
I367
sS'v_with:e-i-u-h'
p407
I503
sS'v_with:e-i'
p408
I508
sS'c:i-i-i'
p409
I88
sS'v_for:e-i'
p410
I402
sS'v_of-i:e-i-p-i'
p411
I298
sS'n_temp:x'
p412
I267
sS'dofm:x-c'
p413
I16
sS'v_about:e-h-u'
p414
I526
sS'v:e-u-h'
p415
I279
sS'n_of-about:x-i'
p416
I204
sS'v_from-to:e-i-p'
p417
I362
sS'v:e-u-p'
p418
I110
sS'v:e-h-u-h'
p419
I495
sS'v_prd:e-i-h'
p420
I347
sS'v_up:e-i-h'
p421
I368
sS'timezone_p:e-i-c'
p422
I359
sS'v_from:e-i-p-i'
p423
I262
sS'_not_c'
p424
I246
sS'v:e-h-u-u'
p425
I383
sS'a_accept:e-p'
p426
I457
sS'v_yield:e-i'
p427
I471
sS'_and+also_c'
p428
I281
sS'of'
p429
I17
sS'v_forth:e-i-i'
p430
I405
sS'n_of:x'
p431
I19
sS'n_to-towards:x-i'
p432
I524
sS'poss'
p433
I38
sS'_'
I1
sS'ARG1'
p434
I3
sS'ARG2'
p435
I11
sS'ARG3'
p436
I24
sS'ARG4'
p437
I141
sS'person:x'
p438
I127
sS'v_for:e-i-p'
p439
I165
sS'plus'
p440
I139
sS'v_for-as:e-i-i-h'
p441
I454
sS'v_together:e-i-i'
p442
I173
sS'c:e-h'
p443
I465
sS'x:e-u'
p444
I31
sS'v_after:e-i-i'
p445
I102
sS'v_unspec:e-i-p'
p446
I313
sS'v_to-i:e-i-p-i'
p447
I311
sS'v_up:e-i'
p448
I34
sS'v_i:e-i-i'
p449
I312
sS'v_i:e-i-h'
p450
I272
sS'q_indiv:i-h-h'
p451
I182
sS'v_as:e-u-h'
p452
I401
sS'a_of-for:e-h-i'
p453
I419
sS'n_against:x-i'
p454
I387
sS'_formerly_c'
p455
I506
sS'a_from:e-p-i'
p456
I196
sS'thing:x'
p457
I159
sS'v_out-of:e-i-i'
p458
I408
sS'v_onto:e-i-i'
p459
I416
sS'loc'
p460
I35
sS'a_expl-for:e-i'
p461
I112
sS'a_expl-for:e-h'
p462
I464
sS'v_as:e-i-p'
p463
I80
sS'temp'
p464
I175
sS'v_back:e-i-u'
p465
I268
sS'v_x:e-h-u-u'
p466
I469
sS'v_on:e-h'
p467
I369
sS'v_on:e-i'
p468
I318
sS'v_off:e-i'
p469
I114
sS'a_than-from:e-i'
p470
I50
sS'abstr_deg:i'
p471
I300
sS'_but_c'
p472
I111
sS'v_on:e-p'
p473
I315
sS'v_of:e-i'
p474
I451
sS'v_as:e-i-i'
p475
I302
sS'v_as:e-i-h'
p476
I438
sS'v_to-with:e-i-p-i'
p477
I329
sS'v_back:e-i-i'
p478
I288
sS'v_away:e-i-i'
p479
I250
sS'v:e-i-u'
p480
I439
sS'subord'
p481
I59
sS'v_along:e-i-i'
p482
I458
sS'v:e-i-p'
p483
I8
sS'v_over:e-i-i'
p484
I255
sS'v_to:e-u-h-i'
p485
I179
sS'comp_too'
p486
I194
sS'v:e-i-h'
p487
I105
sS'v_away:e-i-u'
p488
I399
sS'v_away:e-i-p'
p489
I230
sS'v_up-of:e-i-i-i'
p490
I374
sS'superl:e-u'
p491
I216
sS'n_about:x'
p492
I243
sS'n_of-as:x-i'
p493
I238
sS'v_between:e-i-i'
p494
I527
sS'v_up2:e-i-u'
p495
I425
sS'a_at-for-of:e-i'
p496
I156
sS'v:e-p-i'
p497
I106
sS'v_aside:e-i-i'
p498
I463
sS'a_of:e-i-h'
p499
I259
sS'v_towards:e-i'
p500
I379
sS'a_about:e-e'
p501
I450
sS'a_also:e-i'
p502
I378
sS'a_also:e-h'
p503
I214
sS'a_also:e-e'
p504
I149
sS'a_same-as:e-i'
p505
I136
sS'v_seem:e-u-h-i'
p506
I376
sS'a_about:e-p'
p507
I224
sS'_yet_c'
p508
I328
sS'_though_c'
p509
I441
sS'time_n:x'
p510
I36
sS'v_nv:e-i-h'
p511
I147
sS'a_for:e-e'
p512
I79
sS'a_with:e-p'
p513
I249
sS'a_than-from:e-e'
p514
I351
sS'v_cope:e-i'
p515
I446
sS'a:e-u-h'
p516
I187
sS'a:e-u-i'
p517
I485
sS'v_on:e-i-h'
p518
I512
sS'v_on:e-i-i'
p519
I144
sS'a_for:e-h'
p520
I213
sS'a_for:e-i'
p521
I101
sS'v_to:e-h'
p522
I332
sS'v_to:e-i'
p523
I150
sS'v_on:e-i-p'
p524
I264
sS'a_for:e-p'
p525
I73
sS'v_to:e-p'
p526
I306
sS'v_on:e-i-u'
p527
I397
sS'a:e-u-x'
p528
I77
sS'a_with:e-i'
p529
I219
sS'n_to:x-i'
p530
I122
sS'n_to:x-h'
p531
I365
s.