(dp0
S'_after_c'
p1
I44
sS'_not+to+mention_c'
p2
I46
sS'_and_c'
p3
I12
sS'_formerly_c'
p4
I50
sS'subord'
p5
I14
sS'_much+less_c'
p6
I49
sS'_and+yet_c'
p7
I43
sS'_and+so_c'
p8
I27
sS'BV'
p9
I4
sS'_and+not_c'
p10
I36
sS'_versus_c'
p11
I39
sS'measure'
p12
I2
sS'conj'
p13
I15
sS'_except_c'
p14
I33
sS'loc'
p15
I10
sS'_instead+of_c'
p16
I42
sS'_if+not_c'
p17
I45
sS'_nor_c'
p18
I35
sS'neg'
p19
I16
sS'_not_c'
p20
I28
sS'discourse'
p21
I24
sS'_minus_c'
p22
I48
sS'_and+thus_c'
p23
I38
sS'mwe'
p24
I8
sS'_then_c'
p25
I29
sS'plus'
p26
I19
sS'_though_c'
p27
I47
sS'_and+then_c'
p28
I34
sS'_and+also_c'
p29
I32
sS'_but+also_c'
p30
I30
sS'unspec_manner'
p31
I31
sS'_except+that_c'
p32
I51
sS'_yet_c'
p33
I37
sS'_rather+than_c'
p34
I21
sS'_even_c'
p35
I40
sS'compound'
p36
I6
sS'poss'
p37
I11
sS'_'
p38
I0
sS'temp'
p39
I23
sS'ARG1'
p40
I1
sS'ARG2'
p41
I3
sS'ARG3'
p42
I7
sS'ARG4'
p43
I20
sS'_plus_c'
p44
I41
sS'_but+not_c'
p45
I26
sS'times'
p46
I13
sS'_as+well+as_c'
p47
I22
sS'_but_c'
p48
I18
sS'of'
p49
I5
sS'parenthetical'
p50
I25
sS'appos'
p51
I9
sS'_or_c'
p52
I17
s.